target datalayout = "e-m:e-p270:32:32-p271:32:32-p272:64:64-i64:64-i128:128-f80:128-n8:16:32:64-S128"
target triple = "x86_64-pc-linux-gnu"

%struct.mi_memid_s = type { %union.anon, i8, i8, i8, i32 }
%union.anon = type { %struct.mi_memid_os_info }
%struct.mi_memid_os_info = type { ptr, i64 }

; Function Attrs: inlinehint nounwind uwtable
define internal void @_mi_memid_create(ptr dead_on_unwind noalias writable sret(%struct.mi_memid_s) align 8 %0, i32 noundef %1) #4 {
  %3 = alloca i32, align 4
  store i32 %1, ptr %3, align 4, !tbaa !52
  call void @llvm.memset.p0.i64(ptr align 8 %0, i8 0, i64 24, i1 false)
  %4 = load i32, ptr %3, align 4, !tbaa !52
  %5 = getelementptr inbounds nuw %struct.mi_memid_s, ptr %0, i32 0, i32 4
  store i32 %4, ptr %5, align 4, !tbaa !59
  ret void
}

; Function Attrs: nounwind uwtable
define hidden zeroext i1 @mi_manage_os_memory_ex(ptr noundef %0, i64 noundef %1, i1 noundef zeroext %2, i1 noundef zeroext %3, i1 noundef zeroext %4, i32 noundef %5, i1 noundef zeroext %6, ptr noundef %7) #0 {
  %9 = alloca ptr, align 8
  %10 = alloca i64, align 8
  %11 = alloca i8, align 1
  %12 = alloca i8, align 1
  %13 = alloca i8, align 1
  %14 = alloca i32, align 4
  %15 = alloca i8, align 1
  %16 = alloca ptr, align 8
  %17 = alloca %struct.mi_memid_s, align 8
  store ptr %0, ptr %9, align 8, !tbaa !53
  store i64 %1, ptr %10, align 8, !tbaa !15
  %18 = zext i1 %2 to i8
  store i8 %18, ptr %11, align 1, !tbaa !21
  %19 = zext i1 %3 to i8
  store i8 %19, ptr %12, align 1, !tbaa !21
  %20 = zext i1 %4 to i8
  store i8 %20, ptr %13, align 1, !tbaa !21
  store i32 %5, ptr %14, align 4, !tbaa !52
  %21 = zext i1 %6 to i8
  store i8 %21, ptr %15, align 1, !tbaa !21
  store ptr %7, ptr %16, align 8, !tbaa !69
  call void @llvm.lifetime.start.p0(i64 24, ptr %17) #13
  call void @_mi_memid_create(ptr dead_on_unwind writable sret(%struct.mi_memid_s) align 8 %17, i32 noundef 1) #12
  %22 = load i8, ptr %11, align 1, !tbaa !21, !range !22, !noundef !23
  %23 = trunc i8 %22 to i1
  %24 = getelementptr inbounds nuw %struct.mi_memid_s, ptr %17, i32 0, i32 2
  %25 = zext i1 %23 to i8
  store i8 %25, ptr %24, align 1, !tbaa !85
  %26 = load i8, ptr %13, align 1, !tbaa !21, !range !22, !noundef !23
  %27 = trunc i8 %26 to i1
  %28 = getelementptr inbounds nuw %struct.mi_memid_s, ptr %17, i32 0, i32 3
  %29 = zext i1 %27 to i8
  store i8 %29, ptr %28, align 2, !tbaa !63
  %30 = load i8, ptr %12, align 1, !tbaa !21, !range !22, !noundef !23
  %31 = trunc i8 %30 to i1
  %32 = getelementptr inbounds nuw %struct.mi_memid_s, ptr %17, i32 0, i32 1
  %33 = zext i1 %31 to i8
  store i8 %33, ptr %32, align 8, !tbaa !86
  %34 = load ptr, ptr %9, align 8, !tbaa !53
  %35 = load i64, ptr %10, align 8, !tbaa !15
  %36 = load i8, ptr %12, align 1, !tbaa !21, !range !22, !noundef !23
  %37 = trunc i8 %36 to i1
  %38 = load i32, ptr %14, align 4, !tbaa !52
  %39 = load i8, ptr %15, align 1, !tbaa !21, !range !22, !noundef !23
  %40 = trunc i8 %39 to i1
  %41 = load ptr, ptr %16, align 8, !tbaa !69
  %42 = call zeroext i1 @mi_manage_os_memory_ex2(ptr noundef %34, i64 noundef %35, i1 noundef zeroext %37, i32 noundef %38, i1 noundef zeroext %40, ptr noundef byval(%struct.mi_memid_s) align 8 %17, ptr noundef %41) #12
  call void @llvm.lifetime.end.p0(i64 24, ptr %17) #13
  ret i1 %42
}

; Function Attrs: nounwind uwtable
define hidden zeroext i1 @mi_manage_os_memory(ptr noundef %0, i64 noundef %1, i1 noundef zeroext %2, i1 noundef zeroext %3, i1 noundef zeroext %4, i32 noundef %5) #0 {
  %7 = alloca ptr, align 8
  %8 = alloca i64, align 8
  %9 = alloca i8, align 1
  %10 = alloca i8, align 1
  %11 = alloca i8, align 1
  %12 = alloca i32, align 4
  store ptr %0, ptr %7, align 8, !tbaa !53
  store i64 %1, ptr %8, align 8, !tbaa !15
  %13 = zext i1 %2 to i8
  store i8 %13, ptr %9, align 1, !tbaa !21
  %14 = zext i1 %3 to i8
  store i8 %14, ptr %10, align 1, !tbaa !21
  %15 = zext i1 %4 to i8
  store i8 %15, ptr %11, align 1, !tbaa !21
  store i32 %5, ptr %12, align 4, !tbaa !52
  %16 = load ptr, ptr %7, align 8, !tbaa !53
  %17 = load i64, ptr %8, align 8, !tbaa !15
  %18 = load i8, ptr %9, align 1, !tbaa !21, !range !22, !noundef !23
  %19 = trunc i8 %18 to i1
  %20 = load i8, ptr %10, align 1, !tbaa !21, !range !22, !noundef !23
  %21 = trunc i8 %20 to i1
  %22 = load i8, ptr %11, align 1, !tbaa !21, !range !22, !noundef !23
  %23 = trunc i8 %22 to i1
  %24 = load i32, ptr %12, align 4, !tbaa !52
  %25 = call zeroext i1 @mi_manage_os_memory_ex(ptr noundef %16, i64 noundef %17, i1 noundef zeroext %19, i1 noundef zeroext %21, i1 noundef zeroext %23, i32 noundef %24, i1 noundef zeroext false, ptr noundef null) #12
  ret i1 %25
}