; Function Attrs: nounwind uwtable
define hidden noundef zeroext i1 @mi_manage_os_memory(ptr noundef %0, i64 noundef %1, i1 noundef zeroext %2, i1 noundef zeroext %3, i1 noundef zeroext %4, i32 noundef %5) local_unnamed_addr #0 {
  %7 = alloca %struct.mi_memid_s, align 8
  %8 = zext i1 %2 to i8
  %9 = zext i1 %3 to i8
  %10 = zext i1 %4 to i8
  call void @llvm.lifetime.start.p0(i64 24, ptr nonnull %7) #21
  call void @llvm.memset.p0.i64(ptr noundef nonnull align 8 dereferenceable(24) %7, i8 0, i64 24, i1 false), !alias.scope !83
  %11 = getelementptr inbounds nuw i8, ptr %7, i64 20
  store i32 1, ptr %11, align 4, !tbaa !46, !alias.scope !83
  %12 = getelementptr inbounds nuw i8, ptr %7, i64 17
  store i8 %8, ptr %12, align 1, !tbaa !75
  %13 = getelementptr inbounds nuw i8, ptr %7, i64 18
  store i8 %10, ptr %13, align 2, !tbaa !48
  %14 = getelementptr inbounds nuw i8, ptr %7, i64 16
  store i8 %9, ptr %14, align 8, !tbaa !76
  %15 = tail call fastcc noundef zeroext i1 @mi_manage_os_memory_ex2(ptr noundef %0, i64 noundef %1, i1 noundef zeroext %3, i32 noundef %5, i1 noundef zeroext false, ptr noundef nonnull byval(%struct.mi_memid_s) align 8 %7, ptr noundef null) #19
  call void @llvm.lifetime.end.p0(i64 24, ptr nonnull %7) #21
  ret i1 %15
}